target datalayout = "e-m:e-p270:32:32-p271:32:32-p272:64:64-i64:64-i128:128-f80:128-n8:16:32:64-S128"
target triple = "x86_64-pc-linux-gnu"

@rb_eIOError = dso_local global i64 0, align 8
@rb_cIO = dso_local global i64 0, align 8
@closed_stream = internal constant [14 x i8] c"closed stream\00", align 1

; Function Attrs: inlinehint nounwind sspstrong willreturn memory(none) uwtable
define internal i64 @RB_INT2FIX(i64 noundef %0) #9 {
  %2 = alloca i64, align 8
  %3 = alloca i64, align 8
  %4 = alloca i64, align 8
  %5 = alloca i64, align 8
  %6 = alloca i64, align 8
  %7 = alloca i64, align 8
  store i64 %0, ptr %2, align 8, !tbaa !32
  call void @llvm.lifetime.start.p0(i64 8, ptr %3) #28
  %8 = load i64, ptr %2, align 8, !tbaa !32
  store i64 %8, ptr %3, align 8, !tbaa !32
  call void @llvm.lifetime.start.p0(i64 8, ptr %4) #28
  %9 = load i64, ptr %3, align 8, !tbaa !32
  %10 = shl i64 %9, 1
  %11 = add i64 %10, 1
  store i64 %11, ptr %4, align 8, !tbaa !32
  call void @llvm.lifetime.start.p0(i64 8, ptr %5) #28
  %12 = load i64, ptr %4, align 8, !tbaa !32
  store i64 %12, ptr %5, align 8, !tbaa !32
  call void @llvm.lifetime.start.p0(i64 8, ptr %6) #28
  %13 = load i64, ptr %5, align 8, !tbaa !32
  store i64 %13, ptr %6, align 8, !tbaa !32
  call void @llvm.lifetime.start.p0(i64 8, ptr %7) #28
  %14 = load i64, ptr %6, align 8, !tbaa !32
  store i64 %14, ptr %7, align 8, !tbaa !32
  %15 = load i64, ptr %7, align 8, !tbaa !32
  call void @llvm.lifetime.end.p0(i64 8, ptr %7) #28
  call void @llvm.lifetime.end.p0(i64 8, ptr %6) #28
  call void @llvm.lifetime.end.p0(i64 8, ptr %5) #28
  call void @llvm.lifetime.end.p0(i64 8, ptr %4) #28
  call void @llvm.lifetime.end.p0(i64 8, ptr %3) #28
  ret i64 %15
}

; Function Attrs: inlinehint nounwind sspstrong uwtable
define internal i64 @rb_int2num_inline(i32 noundef %0) #6 {
  %2 = alloca i64, align 8
  %3 = alloca i32, align 4
  store i32 %0, ptr %3, align 4, !tbaa !13
  %4 = load i32, ptr %3, align 4, !tbaa !13
  %5 = sext i32 %4 to i64
  %6 = icmp slt i64 %5, 4611686018427387904
  br i1 %6, label %7, label %15

7:                                                ; preds = %1
  %8 = load i32, ptr %3, align 4, !tbaa !13
  %9 = sext i32 %8 to i64
  %10 = icmp sge i64 %9, -4611686018427387904
  br i1 %10, label %11, label %15

11:                                               ; preds = %7
  %12 = load i32, ptr %3, align 4, !tbaa !13
  %13 = sext i32 %12 to i64
  %14 = call i64 @RB_INT2FIX(i64 noundef %13) #33
  store i64 %14, ptr %2, align 8
  br label %19

15:                                               ; preds = %7, %1
  %16 = load i32, ptr %3, align 4, !tbaa !13
  %17 = sext i32 %16 to i64
  %18 = call i64 @rb_int2big(i64 noundef %17)
  store i64 %18, ptr %2, align 8
  br label %19

19:                                               ; preds = %15, %11
  %20 = load i64, ptr %2, align 8
  ret i64 %20
}

; Function Attrs: nounwind sspstrong uwtable
define internal i32 @io_wait_for_single_fd(i32 noundef %0, i32 noundef %1, ptr noundef %2) #0 {
  %4 = alloca i32, align 4
  %5 = alloca i32, align 4
  %6 = alloca i32, align 4
  %7 = alloca ptr, align 8
  %8 = alloca i64, align 8
  %9 = alloca i32, align 4
  store i32 %0, ptr %5, align 4, !tbaa !13
  store i32 %1, ptr %6, align 4, !tbaa !13
  store ptr %2, ptr %7, align 8, !tbaa !48
  call void @llvm.lifetime.start.p0(i64 8, ptr %8) #28
  %10 = call i64 @rb_fiber_scheduler_current()
  store i64 %10, ptr %8, align 8, !tbaa !32
  %11 = load i64, ptr %8, align 8, !tbaa !32
  %12 = icmp ne i64 %11, 4
  br i1 %12, label %13, label %24

13:                                               ; preds = %3
  %14 = load i64, ptr %8, align 8, !tbaa !32
  %15 = load i32, ptr %5, align 4, !tbaa !13
  %16 = call i64 @io_from_fd(i32 noundef %15)
  %17 = load i32, ptr %6, align 4, !tbaa !13
  %18 = call i64 @rb_int2num_inline(i32 noundef %17)
  %19 = load ptr, ptr %7, align 8, !tbaa !48
  %20 = call i64 @rb_fiber_scheduler_make_timeout(ptr noundef %19)
  %21 = call i64 @rb_fiber_scheduler_io_wait(i64 noundef %14, i64 noundef %16, i64 noundef %18, i64 noundef %20)
  %22 = call zeroext i1 @RB_TEST(i64 noundef %21) #33
  %23 = zext i1 %22 to i32
  store i32 %23, ptr %4, align 4
  store i32 1, ptr %9, align 4
  br label %29

24:                                               ; preds = %3
  %25 = load i32, ptr %5, align 4, !tbaa !13
  %26 = load i32, ptr %6, align 4, !tbaa !13
  %27 = load ptr, ptr %7, align 8, !tbaa !48
  %28 = call i32 @rb_thread_wait_for_single_fd(i32 noundef %25, i32 noundef %26, ptr noundef %27)
  store i32 %28, ptr %4, align 4
  store i32 1, ptr %9, align 4
  br label %29

29:                                               ; preds = %24, %13
  call void @llvm.lifetime.end.p0(i64 8, ptr %8) #28
  %30 = load i32, ptr %4, align 4
  ret i32 %30
}

; Function Attrs: inlinehint nounwind sspstrong willreturn memory(none) uwtable
define internal zeroext i1 @RB_TEST(i64 noundef %0) #9 {
  %2 = alloca i64, align 8
  store i64 %0, ptr %2, align 8, !tbaa !32
  %3 = load i64, ptr %2, align 8, !tbaa !32
  %4 = and i64 %3, -5
  %5 = icmp ne i64 %4, 0
  ret i1 %5
}

; Function Attrs: nounwind sspstrong uwtable
define internal i64 @io_from_fd(i32 noundef %0) #0 {
  %2 = alloca i32, align 4
  store i32 %0, ptr %2, align 4, !tbaa !13
  %3 = load i32, ptr %2, align 4, !tbaa !13
  %4 = load i64, ptr @rb_cIO, align 8, !tbaa !32
  %5 = call i64 @prep_io(i32 noundef %3, i32 noundef 65536, i64 noundef %4, ptr noundef null)
  ret i64 %5
}

; Function Attrs: nounwind sspstrong uwtable
define internal void @io_fd_check_closed(i32 noundef %0) #0 {
  %2 = alloca i32, align 4
  store i32 %0, ptr %2, align 4, !tbaa !13
  %3 = load i32, ptr %2, align 4, !tbaa !13
  %4 = icmp slt i32 %3, 0
  br i1 %4, label %5, label %7

5:                                                ; preds = %1
  call void @rb_thread_check_ints()
  %6 = load i64, ptr @rb_eIOError, align 8, !tbaa !32
  call void (i64, ptr, ...) @rb_raise(i64 noundef %6, ptr noundef @closed_stream) #31
  unreachable

7:                                                ; preds = %1
  ret void
}

; Function Attrs: nounwind sspstrong uwtable
define dso_local i32 @rb_io_wait_readable(i32 noundef %0) #0 {
  %2 = alloca i32, align 4
  %3 = alloca i32, align 4
  %4 = alloca i64, align 8
  %5 = alloca i32, align 4
  store i32 %0, ptr %3, align 4, !tbaa !13
  %6 = load i32, ptr %3, align 4, !tbaa !13
  call void @io_fd_check_closed(i32 noundef %6)
  call void @llvm.lifetime.start.p0(i64 8, ptr %4) #28
  %7 = call i64 @rb_fiber_scheduler_current()
  store i64 %7, ptr %4, align 8, !tbaa !32
  %8 = call ptr @rb_errno_ptr()
  %9 = load i32, ptr %8, align 4, !tbaa !13
  switch i32 %9, label %25 [
    i32 4, label %10
    i32 85, label %10
    i32 11, label %11
  ]

10:                                               ; preds = %1, %1
  call void @rb_thread_check_ints()
  store i32 1, ptr %2, align 4
  store i32 1, ptr %5, align 4
  br label %26

11:                                               ; preds = %1
  %12 = load i64, ptr %4, align 8, !tbaa !32
  %13 = icmp ne i64 %12, 4
  br i1 %13, label %14, label %21

14:                                               ; preds = %11
  %15 = load i64, ptr %4, align 8, !tbaa !32
  %16 = load i32, ptr %3, align 4, !tbaa !13
  %17 = call i64 @io_from_fd(i32 noundef %16)
  %18 = call i64 @rb_fiber_scheduler_io_wait_readable(i64 noundef %15, i64 noundef %17)
  %19 = call zeroext i1 @RB_TEST(i64 noundef %18) #33
  %20 = zext i1 %19 to i32
  store i32 %20, ptr %2, align 4
  store i32 1, ptr %5, align 4
  br label %26

21:                                               ; preds = %11
  %22 = load i32, ptr %3, align 4, !tbaa !13
  %23 = call i32 @io_wait_for_single_fd(i32 noundef %22, i32 noundef 1, ptr noundef null)
  br label %24

24:                                               ; preds = %21
  store i32 1, ptr %2, align 4
  store i32 1, ptr %5, align 4
  br label %26

25:                                               ; preds = %1
  store i32 0, ptr %2, align 4
  store i32 1, ptr %5, align 4
  br label %26

26:                                               ; preds = %25, %24, %14, %10
  call void @llvm.lifetime.end.p0(i64 8, ptr %4) #28
  %27 = load i32, ptr %2, align 4
  ret i32 %27
}