; Function Attrs: nounwind sspstrong uwtable
define dso_local range(i32 0, 2) i32 @rb_io_wait_readable(i32 noundef %0) local_unnamed_addr #0 {
  %2 = icmp slt i32 %0, 0
  br i1 %2, label %3, label %io_fd_check_closed.exit

3:                                                ; preds = %1
  tail call void @rb_thread_check_ints() #28
  %4 = load i64, ptr @rb_eIOError, align 8, !tbaa !23
  tail call void (i64, ptr, ...) @rb_raise(i64 noundef %4, ptr noundef nonnull @closed_stream) #30
  unreachable

io_fd_check_closed.exit:                          ; preds = %1
  %5 = tail call i64 @rb_fiber_scheduler_current() #28
  %6 = tail call ptr @rb_errno_ptr() #28
  %7 = load i32, ptr %6, align 4, !tbaa !20
  switch i32 %7, label %io_wait_for_single_fd.exit [
    i32 4, label %8
    i32 85, label %8
    i32 11, label %9
  ]

8:                                                ; preds = %io_fd_check_closed.exit, %io_fd_check_closed.exit
  tail call void @rb_thread_check_ints() #28
  br label %io_wait_for_single_fd.exit

9:                                                ; preds = %io_fd_check_closed.exit
  %.not = icmp eq i64 %5, 4
  br i1 %.not, label %17, label %10

10:                                               ; preds = %9
  %11 = load i64, ptr @rb_cIO, align 8, !tbaa !23
  %12 = tail call fastcc i64 @prep_io(i32 noundef %0, i32 noundef 65536, i64 noundef %11, ptr noundef null)
  %13 = tail call i64 @rb_fiber_scheduler_io_wait_readable(i64 noundef %5, i64 noundef %12) #28
  %14 = and i64 %13, -5
  %15 = icmp ne i64 %14, 0
  %16 = zext i1 %15 to i32
  br label %io_wait_for_single_fd.exit

17:                                               ; preds = %9
  %18 = tail call i64 @rb_fiber_scheduler_current() #28
  %.not.i = icmp eq i64 %18, 4
  br i1 %.not.i, label %24, label %19

19:                                               ; preds = %17
  %20 = load i64, ptr @rb_cIO, align 8, !tbaa !23
  %21 = tail call fastcc i64 @prep_io(i32 noundef %0, i32 noundef 65536, i64 noundef %20, ptr noundef null)
  %22 = tail call i64 @rb_fiber_scheduler_make_timeout(ptr noundef null) #28
  %23 = tail call i64 @rb_fiber_scheduler_io_wait(i64 noundef %18, i64 noundef %21, i64 noundef 3, i64 noundef %22) #28
  br label %io_wait_for_single_fd.exit

24:                                               ; preds = %17
  %25 = tail call i32 @rb_thread_wait_for_single_fd(i32 noundef %0, i32 noundef 1, ptr noundef null) #28
  br label %io_wait_for_single_fd.exit

io_wait_for_single_fd.exit:                       ; preds = %24, %19, %io_fd_check_closed.exit, %10, %8
  %.0 = phi i32 [ %16, %10 ], [ 1, %8 ], [ 0, %io_fd_check_closed.exit ], [ 1, %19 ], [ 1, %24 ]
  ret i32 %.0
}